Certificate:
    Data:
        Version: 3 (0x2)
        Serial Number: 1 (0x1)
    Signature Algorithm: sha256WithRSAEncryption
        Issuer: C=VN, ST=TPHCM, L=HCM, O=ST, OU=HCMUS, CN=192.168.1.41/emailAddress=phanlethanh93@gmail.com
        Validity
            Not Before: May 17 04:40:50 2015 GMT
            Not After : May 16 04:40:50 2017 GMT
        Subject: C=VN, ST=TPHCM, L=HCM, O=ST, OU=HCMUS, CN=192.169.1.41/emailAddress=phanlethanh93@gmail.com
        Subject Public Key Info:
            Public Key Algorithm: rsaEncryption
                Public-Key: (2048 bit)
                Modulus:
                    00:b5:38:4e:21:28:99:f9:a9:9c:ff:49:1e:ab:c4:
                    2c:e5:3f:72:55:33:e1:db:a1:aa:61:97:d4:70:ce:
                    e2:ef:30:e9:d4:29:28:67:e5:ce:95:e1:c4:e6:21:
                    8c:2b:58:d3:12:2b:5a:3c:3e:87:9f:14:84:42:c3:
                    88:0c:fc:0c:02:b3:77:57:c2:57:21:fa:66:41:40:
                    14:c3:ac:f1:8e:4c:51:8e:68:ce:ba:b7:6f:da:32:
                    cc:f9:09:cf:14:71:9e:fc:59:1b:5c:df:cd:ce:0c:
                    22:d1:d0:7c:21:98:1a:97:fa:0e:80:9f:39:0f:4d:
                    c5:9e:ee:59:1d:da:39:b6:7b:0b:31:07:20:e6:fc:
                    c6:a4:e9:8d:28:e8:71:df:71:48:0a:15:89:6c:64:
                    4c:eb:dc:af:3c:be:2e:ab:e8:57:64:8a:98:de:d8:
                    86:83:81:8c:26:ed:74:5f:c6:e7:ac:d6:f4:e7:94:
                    c5:64:9f:81:31:47:fc:71:ee:ae:02:05:17:6f:24:
                    42:51:b0:70:f9:ff:81:e7:88:eb:32:52:ae:24:75:
                    f2:a9:1a:7e:d4:fc:9e:7a:29:0b:1f:59:dd:15:21:
                    c6:65:20:3b:84:d2:5c:ec:0c:37:8c:a3:33:f8:6a:
                    7a:d7:8f:f0:0f:8b:e8:47:3b:30:7e:68:5c:3c:1b:
                    72:5f
                Exponent: 65537 (0x10001)
        X509v3 extensions:
            X509v3 Basic Constraints: 
                CA:FALSE
            Netscape Comment: 
                OpenSSL Generated Certificate
            X509v3 Subject Key Identifier: 
                D2:05:E3:9C:37:99:42:3C:A2:A4:C1:47:3D:E5:67:A7:67:76:AF:02
            X509v3 Authority Key Identifier: 
                keyid:08:3D:92:BC:F9:FA:B9:B2:1D:5A:96:49:B8:D5:48:14:34:D3:B0:61

    Signature Algorithm: sha256WithRSAEncryption
         af:30:17:2c:e2:c2:61:c6:d9:c5:bd:f9:e4:0e:3e:02:f1:41:
         5f:06:39:ce:f8:07:27:09:56:a4:ac:c3:57:51:aa:b5:a3:2f:
         bd:3a:b8:e4:90:1a:cd:54:13:ac:58:ad:68:f2:6d:1e:3a:b4:
         78:4d:93:2b:8a:80:d2:f1:ca:ef:3b:62:19:cd:b0:25:b9:27:
         34:ba:2f:fe:f7:43:4e:ce:6f:44:d4:7a:d2:af:e9:90:30:7b:
         24:a2:a6:fd:5f:d3:6c:96:18:29:b2:dd:14:49:85:34:2e:a9:
         0d:a6:b1:96:66:6c:bf:88:2b:ec:52:f6:aa:e7:0a:f9:62:00:
         65:40:94:e2:94:27:3d:b5:9d:b7:ae:1a:56:d8:fe:9b:6b:6d:
         d4:87:51:5b:85:3e:f6:9d:17:1c:5e:24:77:90:c2:28:fb:c3:
         8d:76:ca:83:70:11:a2:a0:4a:14:f3:a5:e9:2b:e5:36:91:47:
         dd:f8:18:6b:70:4f:9a:f6:6a:bd:8c:69:c2:88:83:21:6c:fc:
         ac:95:6a:28:87:ae:b4:5d:96:89:11:94:4f:6e:7a:d9:2b:6a:
         d9:c1:0f:fd:2e:84:c7:af:b5:c1:84:d5:74:c1:d9:8d:ae:c7:
         c2:13:3e:d1:ef:87:da:c8:e4:be:f8:a5:ab:7e:a7:dd:9c:a0:
         3b:09:8b:ce
-----BEGIN CERTIFICATE-----
MIIEBjCCAu6gAwIBAgIBATANBgkqhkiG9w0BAQsFADCBhzELMAkGA1UEBhMCVk4x
DjAMBgNVBAgMBVRQSENNMQwwCgYDVQQHDANIQ00xCzAJBgNVBAoMAlNUMQ4wDAYD
VQQLDAVIQ01VUzEVMBMGA1UEAwwMMTkyLjE2OC4xLjQxMSYwJAYJKoZIhvcNAQkB
FhdwaGFubGV0aGFuaDkzQGdtYWlsLmNvbTAeFw0xNTA1MTcwNDQwNTBaFw0xNzA1
MTYwNDQwNTBaMIGHMQswCQYDVQQGEwJWTjEOMAwGA1UECAwFVFBIQ00xDDAKBgNV
BAcMA0hDTTELMAkGA1UECgwCU1QxDjAMBgNVBAsMBUhDTVVTMRUwEwYDVQQDDAwx
OTIuMTY5LjEuNDExJjAkBgkqhkiG9w0BCQEWF3BoYW5sZXRoYW5oOTNAZ21haWwu
Y29tMIIBIjANBgkqhkiG9w0BAQEFAAOCAQ8AMIIBCgKCAQEAtThOISiZ+amc/0ke
q8Qs5T9yVTPh26GqYZfUcM7i7zDp1CkoZ+XOleHE5iGMK1jTEitaPD6HnxSEQsOI
DPwMArN3V8JXIfpmQUAUw6zxjkxRjmjOurdv2jLM+QnPFHGe/FkbXN/Nzgwi0dB8
IZgal/oOgJ85D03Fnu5ZHdo5tnsLMQcg5vzGpOmNKOhx33FIChWJbGRM69yvPL4u
q+hXZIqY3tiGg4GMJu10X8bnrNb055TFZJ+BMUf8ce6uAgUXbyRCUbBw+f+B54jr
MlKuJHXyqRp+1PyeeikLH1ndFSHGZSA7hNJc7Aw3jKMz+Gp614/wD4voRzswfmhc
PBtyXwIDAQABo3sweTAJBgNVHRMEAjAAMCwGCWCGSAGG+EIBDQQfFh1PcGVuU1NM
IEdlbmVyYXRlZCBDZXJ0aWZpY2F0ZTAdBgNVHQ4EFgQU0gXjnDeZQjyipMFHPeVn
p2d2rwIwHwYDVR0jBBgwFoAUCD2SvPn6ubIdWpZJuNVIFDTTsGEwDQYJKoZIhvcN
AQELBQADggEBAK8wFyziwmHG2cW9+eQOPgLxQV8GOc74BycJVqSsw1dRqrWjL706
uOSQGs1UE6xYrWjybR46tHhNkyuKgNLxyu87YhnNsCW5JzS6L/73Q07Ob0TUetKv
6ZAweySipv1f02yWGCmy3RRJhTQuqQ2msZZmbL+IK+xS9qrnCvliAGVAlOKUJz21
nbeuGlbY/ptrbdSHUVuFPvadFxxeJHeQwij7w412yoNwEaKgShTzpekr5TaRR934
GGtwT5r2ar2MacKIgyFs/KyVaiiHrrRdlokRlE9uetkratnBD/0uhMevtcGE1XTB
2Y2ux8ITPtHvh9rI5L74pat+p92coDsJi84=
-----END CERTIFICATE-----
