Certificate:
    Data:
        Version: 3 (0x2)
        Serial Number: 1 (0x1)
    Signature Algorithm: sha256WithRSAEncryption
        Issuer: C=VN, ST=HCM, L=HCMC, O=ST, OU=ST, CN=210.211.117.75/emailAddress=phanlethanh93@gmail.com
        Validity
            Not Before: Jul 10 11:18:33 2015 GMT
            Not After : Jul  9 11:18:33 2017 GMT
        Subject: C=VN, ST=HCM, L=HCMC, O=ST, OU=ST, CN=210.211.117.75/emailAddress=phanlethanh93@gmail.com
        Subject Public Key Info:
            Public Key Algorithm: rsaEncryption
                Public-Key: (2048 bit)
                Modulus:
                    00:b8:6a:0f:88:24:75:9a:be:68:e9:45:18:22:fb:
                    97:fe:31:cc:6c:ae:47:78:35:c9:9a:f2:f7:12:e4:
                    d5:3d:61:6f:4c:f0:4e:9b:30:44:f1:dd:d5:6d:c7:
                    9b:19:22:f7:1e:5d:dc:53:bf:d9:bf:f3:c2:a8:86:
                    46:7f:0c:d7:d8:d2:8c:a2:cf:8a:d5:ab:00:e2:ff:
                    3c:f9:35:52:d8:c9:9e:b9:a9:12:fe:ff:39:d4:f3:
                    60:23:5a:dc:54:46:32:85:0f:c9:ae:69:80:d8:79:
                    ec:3e:97:b4:4d:2c:f8:e1:62:88:ca:1c:09:72:6e:
                    94:a1:5c:7b:ca:f0:2e:e1:b9:09:8c:ac:1d:ff:3f:
                    8d:d8:bd:25:af:9e:df:f6:ea:50:97:72:b7:18:79:
                    88:63:68:a9:b5:98:96:55:ed:1d:1c:09:42:ff:72:
                    07:d7:45:1d:d9:62:cd:23:b4:06:d3:b7:40:c7:75:
                    c2:22:1f:c8:78:d9:87:a1:ad:65:10:b7:cd:d6:e1:
                    c2:49:fc:d4:36:7f:e6:36:e3:24:c2:36:c4:07:4a:
                    4b:95:87:82:34:93:07:c8:a1:18:ab:2f:ed:0a:ad:
                    e9:36:11:ea:50:ce:04:d5:a0:08:8d:2f:de:a5:ec:
                    40:6d:e0:5d:e5:c1:82:72:8c:c5:2d:bb:7a:8f:6a:
                    6d:73
                Exponent: 65537 (0x10001)
        X509v3 extensions:
            X509v3 Basic Constraints: 
                CA:FALSE
            Netscape Comment: 
                OpenSSL Generated Certificate
            X509v3 Subject Key Identifier: 
                45:EE:1B:15:83:47:3E:9E:FF:C2:C5:5D:07:41:78:55:1B:7D:A7:A5
            X509v3 Authority Key Identifier: 
                keyid:C4:60:41:1F:49:95:79:A0:2F:C8:01:A0:63:1F:E4:B8:E5:18:23:9F

    Signature Algorithm: sha256WithRSAEncryption
         04:32:ce:d3:f8:7d:36:a2:9f:4d:f3:d9:d0:55:69:c5:77:c6:
         37:d3:b4:96:d9:2f:99:ff:01:9c:56:fa:ae:85:2c:80:b2:37:
         3e:d8:34:16:46:0e:a5:d5:6c:7a:a9:e1:b6:e5:9b:d1:28:51:
         f1:8b:ae:1b:35:92:61:03:ef:66:3f:61:a8:6a:f7:a3:8a:8e:
         05:af:64:0c:4b:27:11:62:e4:09:5b:ba:ad:39:11:5a:88:78:
         f1:6d:32:bc:e4:5e:8a:3e:08:74:05:03:db:e2:49:7d:31:ec:
         5c:c9:2e:d5:28:f1:be:f1:fe:61:77:b7:f0:68:28:e0:57:50:
         ac:20:cc:c3:e6:83:e3:cb:ce:47:74:df:99:46:6a:31:59:24:
         20:39:fc:50:48:f2:0f:6a:d4:a5:a0:64:ec:d8:8a:40:4b:76:
         4b:ea:de:d6:97:ae:f7:95:27:c5:f8:fc:7c:47:a4:09:23:f6:
         69:ed:85:3b:3a:eb:27:e7:69:f2:3b:f9:92:41:94:6e:c6:a4:
         ea:54:7f:2e:70:86:fe:ff:be:96:f2:ab:99:d9:3e:b1:a8:2c:
         bc:1c:64:3b:9f:25:2e:ca:64:8c:7b:3d:ac:52:4d:30:0c:8e:
         14:bc:f2:d9:91:05:92:e3:c4:f8:b1:03:b0:27:13:94:02:6a:
         da:b5:fe:88
-----BEGIN CERTIFICATE-----
MIIEAjCCAuqgAwIBAgIBATANBgkqhkiG9w0BAQsFADCBhTELMAkGA1UEBhMCVk4x
DDAKBgNVBAgMA0hDTTENMAsGA1UEBwwESENNQzELMAkGA1UECgwCU1QxCzAJBgNV
BAsMAlNUMRcwFQYDVQQDDA4yMTAuMjExLjExNy43NTEmMCQGCSqGSIb3DQEJARYX
cGhhbmxldGhhbmg5M0BnbWFpbC5jb20wHhcNMTUwNzEwMTExODMzWhcNMTcwNzA5
MTExODMzWjCBhTELMAkGA1UEBhMCVk4xDDAKBgNVBAgMA0hDTTENMAsGA1UEBwwE
SENNQzELMAkGA1UECgwCU1QxCzAJBgNVBAsMAlNUMRcwFQYDVQQDDA4yMTAuMjEx
LjExNy43NTEmMCQGCSqGSIb3DQEJARYXcGhhbmxldGhhbmg5M0BnbWFpbC5jb20w
ggEiMA0GCSqGSIb3DQEBAQUAA4IBDwAwggEKAoIBAQC4ag+IJHWavmjpRRgi+5f+
Mcxsrkd4Ncma8vcS5NU9YW9M8E6bMETx3dVtx5sZIvceXdxTv9m/88KohkZ/DNfY
0oyiz4rVqwDi/zz5NVLYyZ65qRL+/znU82AjWtxURjKFD8muaYDYeew+l7RNLPjh
YojKHAlybpShXHvK8C7huQmMrB3/P43YvSWvnt/26lCXcrcYeYhjaKm1mJZV7R0c
CUL/cgfXRR3ZYs0jtAbTt0DHdcIiH8h42YehrWUQt83W4cJJ/NQ2f+Y24yTCNsQH
SkuVh4I0kwfIoRirL+0Krek2EepQzgTVoAiNL96l7EBt4F3lwYJyjMUtu3qPam1z
AgMBAAGjezB5MAkGA1UdEwQCMAAwLAYJYIZIAYb4QgENBB8WHU9wZW5TU0wgR2Vu
ZXJhdGVkIENlcnRpZmljYXRlMB0GA1UdDgQWBBRF7hsVg0c+nv/CxV0HQXhVG32n
pTAfBgNVHSMEGDAWgBTEYEEfSZV5oC/IAaBjH+S45RgjnzANBgkqhkiG9w0BAQsF
AAOCAQEABDLO0/h9NqKfTfPZ0FVpxXfGN9O0ltkvmf8BnFb6roUsgLI3Ptg0FkYO
pdVseqnhtuWb0ShR8YuuGzWSYQPvZj9hqGr3o4qOBa9kDEsnEWLkCVu6rTkRWoh4
8W0yvOReij4IdAUD2+JJfTHsXMku1SjxvvH+YXe38Ggo4FdQrCDMw+aD48vOR3Tf
mUZqMVkkIDn8UEjyD2rUpaBk7NiKQEt2S+re1peu95Unxfj8fEekCSP2ae2FOzrr
J+dp8jv5kkGUbsak6lR/LnCG/v++lvKrmdk+sagsvBxkO58lLspkjHs9rFJNMAyO
FLzy2ZEFkuPE+LEDsCcTlAJq2rX+iA==
-----END CERTIFICATE-----
