Certificate:
    Data:
        Version: 3 (0x2)
        Serial Number: 1 (0x1)
    Signature Algorithm: sha256WithRSAEncryption
        Issuer: C=VN, ST=HCM, L=HCMC, O=ST, OU=HCMUS, CN=210.211.117.30/emailAddress=phanlethanh93@gmail.com
        Validity
            Not Before: May 17 16:54:37 2015 GMT
            Not After : May 16 16:54:37 2017 GMT
        Subject: C=VN, ST=HCM, L=HCMC, O=ST, OU=HCMUS, CN=210.211.117.30/emailAddress=phanlethanh93@gmail.com
        Subject Public Key Info:
            Public Key Algorithm: rsaEncryption
                Public-Key: (2048 bit)
                Modulus:
                    00:c3:53:0c:f5:4f:b0:ba:47:db:9f:3d:af:f6:8c:
                    5f:2e:9d:21:f4:f8:31:b5:cc:d7:5e:c6:3f:c8:27:
                    8b:26:81:96:8a:56:9d:c6:1f:a9:62:03:d5:06:fd:
                    85:b0:1e:a5:d3:17:bd:e0:b9:43:d1:f4:ab:e5:67:
                    c6:20:da:5f:42:87:51:ac:2f:1b:a7:27:1c:27:23:
                    7b:77:f6:26:9f:19:e5:e4:c0:e9:86:31:34:25:76:
                    57:dd:b0:67:bf:af:d6:bb:47:4b:5b:34:ad:2b:b4:
                    fd:d7:1a:64:e5:40:72:5c:b7:d0:6d:dc:22:25:94:
                    5b:7e:67:49:0d:b4:9d:fb:82:d4:99:27:9e:ba:87:
                    7b:b1:ca:2d:45:29:57:7f:d0:1b:6f:b0:35:77:ef:
                    d4:a1:52:ee:a2:6a:e4:f1:23:b2:25:0f:c8:96:44:
                    28:38:7e:e4:41:52:fb:74:80:67:ea:8c:fa:f1:92:
                    2d:64:4a:ac:59:1b:de:f0:ac:7f:22:e8:93:b5:f8:
                    59:fd:27:5b:82:39:7d:69:cc:39:94:bf:26:91:bf:
                    b9:68:88:0a:ff:e1:2a:97:dc:74:94:94:cd:00:bc:
                    f5:9e:bf:d6:dc:3a:98:77:e3:e6:63:da:d9:00:5b:
                    63:c4:6c:3f:16:32:f1:07:57:bf:9a:93:a2:75:94:
                    5c:47
                Exponent: 65537 (0x10001)
        X509v3 extensions:
            X509v3 Basic Constraints: 
                CA:FALSE
            Netscape Comment: 
                OpenSSL Generated Certificate
            X509v3 Subject Key Identifier: 
                F0:34:61:FC:FF:03:B9:53:B4:E8:6E:09:A0:36:D4:4F:0F:1A:08:E5
            X509v3 Authority Key Identifier: 
                keyid:14:D3:54:42:E9:6C:96:0C:F4:80:6A:70:C3:DE:3B:BE:5C:01:FE:A3

    Signature Algorithm: sha256WithRSAEncryption
         25:be:42:8d:ad:02:77:a7:f0:65:22:fe:ab:8d:14:0c:fe:49:
         4f:f4:5f:fb:83:dc:24:2d:24:c8:0f:55:ca:9e:29:68:84:35:
         59:34:01:5f:72:3d:01:1d:45:cb:31:98:56:d7:b6:21:0e:01:
         9d:bb:cd:9b:3e:7c:31:ee:42:90:ed:67:c1:60:cb:cb:0c:fc:
         23:94:db:04:0e:24:ab:43:9f:73:2e:ee:51:ea:6a:5e:3e:9b:
         54:65:68:c8:55:57:dd:c4:45:ad:e7:a5:35:3f:07:18:ad:f8:
         e8:95:22:00:37:95:87:63:2a:12:bb:a9:49:0d:12:f1:b6:77:
         3c:ca:79:26:ea:f5:d2:db:0c:6f:82:c6:1b:a2:70:34:67:f5:
         75:ab:e6:6d:7e:03:e3:30:17:2d:e9:09:43:83:5e:3c:6e:20:
         f7:dc:12:9b:11:19:2d:35:b0:24:4b:d4:9a:dc:65:85:b1:b7:
         16:fb:d3:9d:fa:27:4b:6d:ae:9f:2a:dc:78:1d:30:8e:82:88:
         1f:79:3d:6a:42:83:d7:a3:79:45:41:b6:42:18:39:5d:92:28:
         3f:ac:95:73:00:f6:13:10:3a:2e:9f:7d:ef:1c:0a:52:11:6a:
         47:74:0e:0f:3b:1d:50:e9:5b:ab:80:57:f2:46:5d:12:cd:fd:
         98:7b:80:5b
-----BEGIN CERTIFICATE-----
MIIECDCCAvCgAwIBAgIBATANBgkqhkiG9w0BAQsFADCBiDELMAkGA1UEBhMCVk4x
DDAKBgNVBAgMA0hDTTENMAsGA1UEBwwESENNQzELMAkGA1UECgwCU1QxDjAMBgNV
BAsMBUhDTVVTMRcwFQYDVQQDDA4yMTAuMjExLjExNy4zMDEmMCQGCSqGSIb3DQEJ
ARYXcGhhbmxldGhhbmg5M0BnbWFpbC5jb20wHhcNMTUwNTE3MTY1NDM3WhcNMTcw
NTE2MTY1NDM3WjCBiDELMAkGA1UEBhMCVk4xDDAKBgNVBAgMA0hDTTENMAsGA1UE
BwwESENNQzELMAkGA1UECgwCU1QxDjAMBgNVBAsMBUhDTVVTMRcwFQYDVQQDDA4y
MTAuMjExLjExNy4zMDEmMCQGCSqGSIb3DQEJARYXcGhhbmxldGhhbmg5M0BnbWFp
bC5jb20wggEiMA0GCSqGSIb3DQEBAQUAA4IBDwAwggEKAoIBAQDDUwz1T7C6R9uf
Pa/2jF8unSH0+DG1zNdexj/IJ4smgZaKVp3GH6liA9UG/YWwHqXTF73guUPR9Kvl
Z8Yg2l9Ch1GsLxunJxwnI3t39iafGeXkwOmGMTQldlfdsGe/r9a7R0tbNK0rtP3X
GmTlQHJct9Bt3CIllFt+Z0kNtJ37gtSZJ566h3uxyi1FKVd/0BtvsDV379ShUu6i
auTxI7IlD8iWRCg4fuRBUvt0gGfqjPrxki1kSqxZG97wrH8i6JO1+Fn9J1uCOX1p
zDmUvyaRv7loiAr/4SqX3HSUlM0AvPWev9bcOph34+Zj2tkAW2PEbD8WMvEHV7+a
k6J1lFxHAgMBAAGjezB5MAkGA1UdEwQCMAAwLAYJYIZIAYb4QgENBB8WHU9wZW5T
U0wgR2VuZXJhdGVkIENlcnRpZmljYXRlMB0GA1UdDgQWBBTwNGH8/wO5U7Tobgmg
NtRPDxoI5TAfBgNVHSMEGDAWgBQU01RC6WyWDPSAanDD3ju+XAH+ozANBgkqhkiG
9w0BAQsFAAOCAQEAJb5Cja0Cd6fwZSL+q40UDP5JT/Rf+4PcJC0kyA9Vyp4paIQ1
WTQBX3I9AR1FyzGYVte2IQ4BnbvNmz58Me5CkO1nwWDLywz8I5TbBA4kq0Ofcy7u
UepqXj6bVGVoyFVX3cRFreelNT8HGK346JUiADeVh2MqErupSQ0S8bZ3PMp5Jur1
0tsMb4LGG6JwNGf1davmbX4D4zAXLekJQ4NePG4g99wSmxEZLTWwJEvUmtxlhbG3
FvvTnfonS22unyrceB0wjoKIH3k9akKD16N5RUG2Qhg5XZIoP6yVcwD2ExA6Lp99
7xwKUhFqR3QODzsdUOlbq4BX8kZdEs39mHuAWw==
-----END CERTIFICATE-----
