Certificate:
    Data:
        Version: 3 (0x2)
        Serial Number: 1 (0x1)
    Signature Algorithm: sha256WithRSAEncryption
        Issuer: C=VN, ST=HCM, L=HCMC, O=ST, OU=ST, CN=210.211.117.69/emailAddress=phanlethanh93@gmail.com
        Validity
            Not Before: Jun  9 04:53:15 2015 GMT
            Not After : Jun  8 04:53:15 2017 GMT
        Subject: C=VN, ST=HCM, L=HCMC, O=ST, OU=ST, CN=210.211.117.69/emailAddress=phanlethanh93@gmail.com
        Subject Public Key Info:
            Public Key Algorithm: rsaEncryption
                Public-Key: (2048 bit)
                Modulus:
                    00:9d:b3:6c:a7:31:46:08:bd:96:51:95:a4:c5:86:
                    29:d8:f4:5f:22:81:55:aa:b8:50:4b:f0:dd:5a:7a:
                    e0:bf:9e:26:c0:f3:08:ff:53:12:4b:f8:61:08:3c:
                    6b:40:2e:85:c2:68:13:0c:27:7c:f6:db:9b:f7:fb:
                    0b:60:19:9a:14:1e:ce:71:f5:2b:de:02:db:a6:02:
                    ed:13:fb:f3:99:98:e6:f0:98:98:0c:f6:3e:9a:09:
                    78:40:4f:b6:34:0f:15:bf:02:1e:6f:85:f6:0f:31:
                    db:14:02:d0:be:8e:15:b8:5f:bf:ee:d0:3c:ce:9e:
                    2b:80:cf:ca:dc:10:d5:48:cd:d1:59:8f:68:41:40:
                    bb:2c:21:92:d8:ca:0a:44:f7:17:42:9d:03:c6:67:
                    dd:9c:54:73:7c:00:51:a8:f5:cc:0d:5c:59:76:1f:
                    35:fd:0e:81:08:8e:d6:cf:ae:3b:27:e6:01:b9:8b:
                    8a:a7:9a:cd:55:cd:25:f1:70:77:d4:8b:f0:a7:f5:
                    98:72:b7:40:65:3a:91:4c:f6:7e:95:d9:11:63:17:
                    86:fe:2a:e5:3c:d3:84:0f:9f:bd:8d:ce:db:63:33:
                    2a:04:39:bc:a2:c1:c3:a4:83:fc:69:3c:3d:0d:d6:
                    74:5c:91:3f:32:88:18:8d:e0:2a:ca:32:7b:80:d2:
                    e8:11
                Exponent: 65537 (0x10001)
        X509v3 extensions:
            X509v3 Basic Constraints: 
                CA:FALSE
            Netscape Comment: 
                OpenSSL Generated Certificate
            X509v3 Subject Key Identifier: 
                F5:EE:B3:64:AE:F9:C8:42:C2:D1:98:9E:A5:12:2F:4F:A3:96:2E:B9
            X509v3 Authority Key Identifier: 
                keyid:28:91:33:5D:28:B8:DC:68:26:A3:1A:8A:8C:8D:7B:10:EC:EC:A7:F3

    Signature Algorithm: sha256WithRSAEncryption
         b6:6f:3c:34:6b:85:5e:f5:d3:3a:33:d5:c0:bc:9d:74:eb:77:
         20:7a:9d:33:27:9a:48:4c:1b:9f:bf:40:9f:b2:83:64:1b:29:
         0d:99:ed:c3:e9:ba:92:5a:e7:d7:80:3a:06:01:f8:6c:38:12:
         ff:91:93:2b:d8:28:d2:bf:c6:63:bb:6d:09:26:c5:d5:2c:98:
         e5:f0:9e:2b:20:e8:1e:12:6a:7a:a8:8a:be:84:99:c9:2a:93:
         3e:d1:61:a1:9b:c9:9d:c5:3e:9a:35:f6:4f:d3:13:39:59:cc:
         ff:f9:ca:38:85:1c:39:c1:5e:56:44:95:d1:e4:93:b5:8c:f2:
         0c:2a:3e:40:6b:07:e8:78:32:9c:2f:4b:68:fe:04:a4:dc:50:
         75:34:9b:bc:08:b7:71:b0:8c:de:2c:6a:81:ca:22:6e:83:9f:
         dc:97:f3:be:28:73:14:aa:19:6e:0f:53:42:07:c0:59:71:56:
         89:f1:67:02:07:36:5a:66:b9:7a:9c:4c:16:06:76:a2:2e:1c:
         07:f6:3c:0a:32:ee:96:d3:39:25:0e:32:ec:ae:47:8a:f9:3f:
         9b:35:b7:79:46:7f:14:69:dd:d7:52:83:5c:31:fa:43:f8:d1:
         5d:6c:a6:a9:d6:1e:22:98:9f:93:67:e2:94:6c:9b:b8:e0:bf:
         91:61:69:49
-----BEGIN CERTIFICATE-----
MIIEAjCCAuqgAwIBAgIBATANBgkqhkiG9w0BAQsFADCBhTELMAkGA1UEBhMCVk4x
DDAKBgNVBAgMA0hDTTENMAsGA1UEBwwESENNQzELMAkGA1UECgwCU1QxCzAJBgNV
BAsMAlNUMRcwFQYDVQQDDA4yMTAuMjExLjExNy42OTEmMCQGCSqGSIb3DQEJARYX
cGhhbmxldGhhbmg5M0BnbWFpbC5jb20wHhcNMTUwNjA5MDQ1MzE1WhcNMTcwNjA4
MDQ1MzE1WjCBhTELMAkGA1UEBhMCVk4xDDAKBgNVBAgMA0hDTTENMAsGA1UEBwwE
SENNQzELMAkGA1UECgwCU1QxCzAJBgNVBAsMAlNUMRcwFQYDVQQDDA4yMTAuMjEx
LjExNy42OTEmMCQGCSqGSIb3DQEJARYXcGhhbmxldGhhbmg5M0BnbWFpbC5jb20w
ggEiMA0GCSqGSIb3DQEBAQUAA4IBDwAwggEKAoIBAQCds2ynMUYIvZZRlaTFhinY
9F8igVWquFBL8N1aeuC/nibA8wj/UxJL+GEIPGtALoXCaBMMJ3z225v3+wtgGZoU
Hs5x9SveAtumAu0T+/OZmObwmJgM9j6aCXhAT7Y0DxW/Ah5vhfYPMdsUAtC+jhW4
X7/u0DzOniuAz8rcENVIzdFZj2hBQLssIZLYygpE9xdCnQPGZ92cVHN8AFGo9cwN
XFl2HzX9DoEIjtbPrjsn5gG5i4qnms1VzSXxcHfUi/Cn9Zhyt0BlOpFM9n6V2RFj
F4b+KuU804QPn72NzttjMyoEObyiwcOkg/xpPD0N1nRckT8yiBiN4CrKMnuA0ugR
AgMBAAGjezB5MAkGA1UdEwQCMAAwLAYJYIZIAYb4QgENBB8WHU9wZW5TU0wgR2Vu
ZXJhdGVkIENlcnRpZmljYXRlMB0GA1UdDgQWBBT17rNkrvnIQsLRmJ6lEi9Po5Yu
uTAfBgNVHSMEGDAWgBQokTNdKLjcaCajGoqMjXsQ7Oyn8zANBgkqhkiG9w0BAQsF
AAOCAQEAtm88NGuFXvXTOjPVwLyddOt3IHqdMyeaSEwbn79An7KDZBspDZntw+m6
klrn14A6BgH4bDgS/5GTK9go0r/GY7ttCSbF1SyY5fCeKyDoHhJqeqiKvoSZySqT
PtFhoZvJncU+mjX2T9MTOVnM//nKOIUcOcFeVkSV0eSTtYzyDCo+QGsH6HgynC9L
aP4EpNxQdTSbvAi3cbCM3ixqgcoiboOf3JfzvihzFKoZbg9TQgfAWXFWifFnAgc2
Wma5epxMFgZ2oi4cB/Y8CjLultM5JQ4y7K5Hivk/mzW3eUZ/FGnd11KDXDH6Q/jR
XWymqdYeIpifk2filGybuOC/kWFpSQ==
-----END CERTIFICATE-----
